#include <math.h>
#include <stdio.h>
#include <stdlib.h>
#include <string.h>

int main()
{
    int s[300],b[300],i,n,j,m,k=0;
    scanf("%d",&n);
    for(i=0;i<n;i++)
        scanf("%d",&s[i]);
    for(i=0;i<n;i++){
        for(j=0,m=0;j<i;j++){
           if(s[i]==s[j])
              m++;
        }
        if(m==0){
           b[k]=s[i];
           k++;
        }
    }
    for(i=0;i<k-1;i++){
        printf("%d,",b[i]);
    }
    printf("%d",b[k-1]);
    return 0;
}
